target datalayout = "e-m:e-p270:32:32-p271:32:32-p272:64:64-i64:64-i128:128-f80:128-n8:16:32:64-S128"
target triple = "x86_64-pc-linux-gnu"

%struct._object = type { i64, ptr }
%"class.(anonymous namespace)::RefWrapper" = type { ptr }
%"class.cv::Range" = type { i32, i32 }

@_Py_NoneStruct = external global %struct._object, align 8

; Function Attrs: mustprogress nounwind uwtable
define linkonce_odr hidden void @_ZN2cv5RangeC2Eii(ptr noundef nonnull align 4 dereferenceable(8) %0, i32 noundef %1, i32 noundef %2) unnamed_addr #5 comdat align 2 {
  %4 = alloca ptr, align 8
  %5 = alloca i32, align 4
  %6 = alloca i32, align 4
  store ptr %0, ptr %4, align 8
  store i32 %1, ptr %5, align 4
  store i32 %2, ptr %6, align 4
  %7 = load ptr, ptr %4, align 8
  %8 = getelementptr inbounds %"class.cv::Range", ptr %7, i32 0, i32 0
  %9 = load i32, ptr %5, align 4
  store i32 %9, ptr %8, align 4
  %10 = getelementptr inbounds %"class.cv::Range", ptr %7, i32 0, i32 1
  %11 = load i32, ptr %6, align 4
  store i32 %11, ptr %10, align 4
  ret void
}

; Function Attrs: mustprogress nounwind uwtable
define internal void @_ZN12_GLOBAL__N_110RefWrapperIiEC2ERi(ptr noundef nonnull align 8 dereferenceable(8) %0, ptr noundef nonnull align 4 dereferenceable(4) %1) unnamed_addr #5 align 2 {
  %3 = alloca ptr, align 8
  %4 = alloca ptr, align 8
  store ptr %0, ptr %3, align 8
  store ptr %1, ptr %4, align 8
  %5 = load ptr, ptr %3, align 8
  %6 = getelementptr inbounds %"class.(anonymous namespace)::RefWrapper", ptr %5, i32 0, i32 0
  %7 = load ptr, ptr %4, align 8
  store ptr %7, ptr %6, align 8
  ret void
}

; Function Attrs: mustprogress uwtable
define linkonce_odr hidden i64 @_ZN2cv5Range3allEv() #4 comdat align 2 {
  %1 = alloca %"class.cv::Range", align 4
  call void @_ZN2cv5RangeC2Eii(ptr noundef nonnull align 4 dereferenceable(8) %1, i32 noundef -2147483648, i32 noundef 2147483647)
  %2 = load i64, ptr %1, align 4
  ret i64 %2
}

; Function Attrs: mustprogress uwtable
define hidden noundef zeroext i1 @_Z11pyopencv_toIN2cv5RangeEEbP7_objectRT_RK7ArgInfo(ptr noundef %0, ptr noundef nonnull align 4 dereferenceable(8) %1, ptr noundef nonnull align 8 dereferenceable(12) %2) #4 {
  %4 = alloca i1, align 1
  %5 = alloca ptr, align 8
  %6 = alloca ptr, align 8
  %7 = alloca ptr, align 8
  %8 = alloca %"class.cv::Range", align 4
  %9 = alloca [2 x %"class.(anonymous namespace)::RefWrapper"], align 16
  store ptr %0, ptr %5, align 8
  store ptr %1, ptr %6, align 8
  store ptr %2, ptr %7, align 8
  %10 = load ptr, ptr %5, align 8
  %11 = icmp ne ptr %10, null
  br i1 %11, label %12, label %15

12:                                               ; preds = %3
  %13 = load ptr, ptr %5, align 8
  %14 = icmp eq ptr %13, @_Py_NoneStruct
  br i1 %14, label %15, label %16

15:                                               ; preds = %12, %3
  store i1 true, ptr %4, align 1
  br label %32

16:                                               ; preds = %12
  %17 = load ptr, ptr %5, align 8
  %18 = call i64 @PyObject_Size(ptr noundef %17)
  %19 = icmp eq i64 %18, 0
  br i1 %19, label %20, label %23

20:                                               ; preds = %16
  %21 = call i64 @_ZN2cv5Range3allEv()
  store i64 %21, ptr %8, align 4
  %22 = load ptr, ptr %6, align 8
  call void @llvm.memcpy.p0.p0.i64(ptr align 4 %22, ptr align 4 %8, i64 8, i1 false)
  store i1 true, ptr %4, align 1
  br label %32

23:                                               ; preds = %16
  %24 = load ptr, ptr %6, align 8
  %25 = getelementptr inbounds %"class.cv::Range", ptr %24, i32 0, i32 0
  call void @_ZN12_GLOBAL__N_110RefWrapperIiEC2ERi(ptr noundef nonnull align 8 dereferenceable(8) %9, ptr noundef nonnull align 4 dereferenceable(4) %25)
  %26 = getelementptr inbounds %"class.(anonymous namespace)::RefWrapper", ptr %9, i64 1
  %27 = load ptr, ptr %6, align 8
  %28 = getelementptr inbounds %"class.cv::Range", ptr %27, i32 0, i32 1
  call void @_ZN12_GLOBAL__N_110RefWrapperIiEC2ERi(ptr noundef nonnull align 8 dereferenceable(8) %26, ptr noundef nonnull align 4 dereferenceable(4) %28)
  %29 = load ptr, ptr %5, align 8
  %30 = load ptr, ptr %7, align 8
  %31 = call noundef zeroext i1 @_ZN12_GLOBAL__N_113parseSequenceIiLm2EEEbP7_objectRAT0__NS_10RefWrapperIT_EERK7ArgInfo(ptr noundef %29, ptr noundef nonnull align 8 dereferenceable(16) %9, ptr noundef nonnull align 8 dereferenceable(12) %30)
  store i1 %31, ptr %4, align 1
  br label %32

32:                                               ; preds = %23, %20, %15
  %33 = load i1, ptr %4, align 1
  ret i1 %33
}