; Function Attrs: mustprogress uwtable
define hidden noundef zeroext i1 @_Z11pyopencv_toIN2cv5RangeEEbP7_objectRT_RK7ArgInfo(ptr noundef %0, ptr noundef nonnull align 4 dereferenceable(8) %1, ptr nocapture noundef nonnull readonly align 8 dereferenceable(12) %2) local_unnamed_addr #3 {
  %4 = alloca [2 x %"class.(anonymous namespace)::RefWrapper"], align 16
  %5 = icmp eq ptr %0, null
  %6 = icmp eq ptr %0, @_Py_NoneStruct
  %or.cond = or i1 %5, %6
  br i1 %or.cond, label %15, label %7

7:                                                ; preds = %3
  %8 = tail call i64 @PyObject_Size(ptr noundef nonnull %0)
  %9 = icmp eq i64 %8, 0
  br i1 %9, label %10, label %11

10:                                               ; preds = %7
  store i64 9223372034707292160, ptr %1, align 4
  br label %15

11:                                               ; preds = %7
  store ptr %1, ptr %4, align 16
  %12 = getelementptr inbounds i8, ptr %4, i64 8
  %13 = getelementptr inbounds i8, ptr %1, i64 4
  store ptr %13, ptr %12, align 8
  %14 = call fastcc noundef zeroext i1 @_ZN12_GLOBAL__N_113parseSequenceIiLm2EEEbP7_objectRAT0__NS_10RefWrapperIT_EERK7ArgInfo(ptr noundef nonnull %0, ptr noundef nonnull align 8 dereferenceable(16) %4, ptr noundef nonnull align 8 dereferenceable(12) %2)
  br label %15

15:                                               ; preds = %3, %11, %10
  %.0 = phi i1 [ true, %10 ], [ %14, %11 ], [ true, %3 ]
  ret i1 %.0
}